target datalayout = "e-m:e-p270:32:32-p271:32:32-p272:64:64-i64:64-i128:128-f80:128-n8:16:32:64-S128"
target triple = "x86_64-pc-linux-gnu"

%struct.edix = type { i32, ptr, ptr }
%"class.std::filesystem::__cxx11::path" = type { %"class.std::__cxx11::basic_string", %"struct.std::filesystem::__cxx11::path::_List" }
%"class.std::__cxx11::basic_string" = type { %"struct.std::__cxx11::basic_string<char>::_Alloc_hider", i64, %union.anon.3 }
%"struct.std::__cxx11::basic_string<char>::_Alloc_hider" = type { ptr }
%union.anon.3 = type { i64, [8 x i8] }
%"struct.std::filesystem::__cxx11::path::_List" = type { %"class.std::unique_ptr" }
%"class.std::unique_ptr" = type { %"struct.std::__uniq_ptr_data" }
%"struct.std::__uniq_ptr_data" = type { %"class.std::__uniq_ptr_impl" }
%"class.std::__uniq_ptr_impl" = type { %"class.std::tuple" }
%"class.std::tuple" = type { %"struct.std::_Tuple_impl" }
%"struct.std::_Tuple_impl" = type { %"struct.std::_Head_base.5" }
%"struct.std::_Head_base.5" = type { ptr }

@.str.156 = private unnamed_addr constant [129 x i8] c"generated/home/dtcxzyw/WorkSpace/Projects/compilers/llvm-opt-benchmark/bench/gromacs/gromacs/src/gromacs/gmxana/gmx_make_edi.cpp\00", align 1
@.str.188 = private unnamed_addr constant [7 x i8] c"edx->x\00", align 1
@.str.189 = private unnamed_addr constant [10 x i8] c"edx->anrs\00", align 1
@.str.190 = private unnamed_addr constant [49 x i8] c"Couldn't find atom with index %d in structure %s\00", align 1

; Function Attrs: mustprogress nounwind uwtable
define internal void @_ZL9copy_rvecPKfPf(ptr noundef %0, ptr noundef %1) #3 {
  %3 = alloca ptr, align 8
  %4 = alloca ptr, align 8
  store ptr %0, ptr %3, align 8
  store ptr %1, ptr %4, align 8
  %5 = load ptr, ptr %3, align 8
  %6 = getelementptr inbounds float, ptr %5, i64 0
  %7 = load float, ptr %6, align 4
  %8 = load ptr, ptr %4, align 8
  %9 = getelementptr inbounds float, ptr %8, i64 0
  store float %7, ptr %9, align 4
  %10 = load ptr, ptr %3, align 8
  %11 = getelementptr inbounds float, ptr %10, i64 1
  %12 = load float, ptr %11, align 4
  %13 = load ptr, ptr %4, align 8
  %14 = getelementptr inbounds float, ptr %13, i64 1
  store float %12, ptr %14, align 4
  %15 = load ptr, ptr %3, align 8
  %16 = getelementptr inbounds float, ptr %15, i64 2
  %17 = load float, ptr %16, align 4
  %18 = load ptr, ptr %4, align 8
  %19 = getelementptr inbounds float, ptr %18, i64 2
  store float %17, ptr %19, align 4
  ret void
}

; Function Attrs: mustprogress uwtable
define internal void @_ZL15gmx_srenew_implIiEvPKcS1_iRPT_m(ptr noundef %0, ptr noundef %1, i32 noundef %2, ptr noundef nonnull align 8 dereferenceable(8) %3, i64 noundef %4) #0 {
  %6 = alloca ptr, align 8
  %7 = alloca ptr, align 8
  %8 = alloca i32, align 4
  %9 = alloca ptr, align 8
  %10 = alloca i64, align 8
  store ptr %0, ptr %6, align 8
  store ptr %1, ptr %7, align 8
  store i32 %2, ptr %8, align 4
  store ptr %3, ptr %9, align 8
  store i64 %4, ptr %10, align 8
  %11 = load ptr, ptr %6, align 8
  %12 = load ptr, ptr %7, align 8
  %13 = load i32, ptr %8, align 4
  %14 = load ptr, ptr %9, align 8
  %15 = load ptr, ptr %14, align 8
  %16 = load i64, ptr %10, align 8
  %17 = call noundef ptr @_Z12save_reallocPKcS0_iPvmm(ptr noundef %11, ptr noundef %12, i32 noundef %13, ptr noundef %15, i64 noundef %16, i64 noundef 4)
  %18 = load ptr, ptr %9, align 8
  store ptr %17, ptr %18, align 8
  ret void
}

; Function Attrs: mustprogress uwtable
define internal void @_ZL15gmx_srenew_implIA3_fEvPKcS2_iRPT_m(ptr noundef %0, ptr noundef %1, i32 noundef %2, ptr noundef nonnull align 8 dereferenceable(8) %3, i64 noundef %4) #0 {
  %6 = alloca ptr, align 8
  %7 = alloca ptr, align 8
  %8 = alloca i32, align 4
  %9 = alloca ptr, align 8
  %10 = alloca i64, align 8
  store ptr %0, ptr %6, align 8
  store ptr %1, ptr %7, align 8
  store i32 %2, ptr %8, align 4
  store ptr %3, ptr %9, align 8
  store i64 %4, ptr %10, align 8
  %11 = load ptr, ptr %6, align 8
  %12 = load ptr, ptr %7, align 8
  %13 = load i32, ptr %8, align 4
  %14 = load ptr, ptr %9, align 8
  %15 = load ptr, ptr %14, align 8
  %16 = load i64, ptr %10, align 8
  %17 = call noundef ptr @_Z12save_reallocPKcS0_iPvmm(ptr noundef %11, ptr noundef %12, i32 noundef %13, ptr noundef %15, i64 noundef %16, i64 noundef 12)
  %18 = load ptr, ptr %9, align 8
  store ptr %17, ptr %18, align 8
  ret void
}

; Function Attrs: mustprogress uwtable
define internal void @_ZL10filter2edxP4edixiPiiPKiPA3_KfPKc(ptr noundef %0, i32 noundef %1, ptr noundef %2, i32 noundef %3, ptr noundef %4, ptr noundef %5, ptr noundef %6) #0 personality ptr @__gxx_personality_v0 {
  %8 = alloca ptr, align 8
  %9 = alloca i32, align 4
  %10 = alloca ptr, align 8
  %11 = alloca i32, align 4
  %12 = alloca ptr, align 8
  %13 = alloca ptr, align 8
  %14 = alloca ptr, align 8
  %15 = alloca i32, align 4
  %16 = alloca i32, align 4
  %17 = alloca i32, align 4
  %18 = alloca %"class.std::filesystem::__cxx11::path", align 8
  %19 = alloca ptr, align 8
  %20 = alloca i32, align 4
  store ptr %0, ptr %8, align 8
  store i32 %1, ptr %9, align 4
  store ptr %2, ptr %10, align 8
  store i32 %3, ptr %11, align 4
  store ptr %4, ptr %12, align 8
  store ptr %5, ptr %13, align 8
  store ptr %6, ptr %14, align 8
  %21 = load ptr, ptr %8, align 8
  %22 = getelementptr inbounds %struct.edix, ptr %21, i32 0, i32 0
  %23 = load i32, ptr %22, align 8
  store i32 %23, ptr %17, align 4
  %24 = load i32, ptr %9, align 4
  %25 = load ptr, ptr %8, align 8
  %26 = getelementptr inbounds %struct.edix, ptr %25, i32 0, i32 0
  %27 = load i32, ptr %26, align 8
  %28 = add nsw i32 %27, %24
  store i32 %28, ptr %26, align 8
  %29 = load ptr, ptr %8, align 8
  %30 = getelementptr inbounds %struct.edix, ptr %29, i32 0, i32 2
  %31 = load ptr, ptr %8, align 8
  %32 = getelementptr inbounds %struct.edix, ptr %31, i32 0, i32 0
  %33 = load i32, ptr %32, align 8
  %34 = sext i32 %33 to i64
  call void @_ZL15gmx_srenew_implIA3_fEvPKcS2_iRPT_m(ptr noundef @.str.188, ptr noundef @.str.156, i32 noundef 582, ptr noundef nonnull align 8 dereferenceable(8) %30, i64 noundef %34)
  %35 = load ptr, ptr %8, align 8
  %36 = getelementptr inbounds %struct.edix, ptr %35, i32 0, i32 1
  %37 = load ptr, ptr %8, align 8
  %38 = getelementptr inbounds %struct.edix, ptr %37, i32 0, i32 0
  %39 = load i32, ptr %38, align 8
  %40 = sext i32 %39 to i64
  call void @_ZL15gmx_srenew_implIiEvPKcS1_iRPT_m(ptr noundef @.str.189, ptr noundef @.str.156, i32 noundef 583, ptr noundef nonnull align 8 dereferenceable(8) %36, i64 noundef %40)
  store i32 0, ptr %16, align 4
  br label %41

41:                                               ; preds = %117, %7
  %42 = load i32, ptr %16, align 4
  %43 = load i32, ptr %9, align 4
  %44 = icmp slt i32 %42, %43
  br i1 %44, label %45, label %122

45:                                               ; preds = %41
  store i32 0, ptr %15, align 4
  br label %46

46:                                               ; preds = %66, %45
  %47 = load i32, ptr %15, align 4
  %48 = load i32, ptr %11, align 4
  %49 = sub nsw i32 %48, 1
  %50 = icmp slt i32 %47, %49
  br i1 %50, label %51, label %63

51:                                               ; preds = %46
  %52 = load ptr, ptr %12, align 8
  %53 = load i32, ptr %15, align 4
  %54 = sext i32 %53 to i64
  %55 = getelementptr inbounds i32, ptr %52, i64 %54
  %56 = load i32, ptr %55, align 4
  %57 = load ptr, ptr %10, align 8
  %58 = load i32, ptr %16, align 4
  %59 = sext i32 %58 to i64
  %60 = getelementptr inbounds i32, ptr %57, i64 %59
  %61 = load i32, ptr %60, align 4
  %62 = icmp ne i32 %56, %61
  br label %63

63:                                               ; preds = %51, %46
  %64 = phi i1 [ false, %46 ], [ %62, %51 ]
  br i1 %64, label %65, label %69

65:                                               ; preds = %63
  br label %66

66:                                               ; preds = %65
  %67 = load i32, ptr %15, align 4
  %68 = add nsw i32 %67, 1
  store i32 %68, ptr %15, align 4
  br label %46, !llvm.loop !19

69:                                               ; preds = %63
  %70 = load ptr, ptr %12, align 8
  %71 = load i32, ptr %15, align 4
  %72 = sext i32 %71 to i64
  %73 = getelementptr inbounds i32, ptr %70, i64 %72
  %74 = load i32, ptr %73, align 4
  %75 = load ptr, ptr %10, align 8
  %76 = load i32, ptr %16, align 4
  %77 = sext i32 %76 to i64
  %78 = getelementptr inbounds i32, ptr %75, i64 %77
  %79 = load i32, ptr %78, align 4
  %80 = icmp ne i32 %74, %79
  br i1 %80, label %81, label %93

81:                                               ; preds = %69
  call void @_ZNSt10filesystem7__cxx114pathC2IA129_cS1_EERKT_NS1_6formatE(ptr noundef nonnull align 8 dereferenceable(40) %18, ptr noundef nonnull align 1 dereferenceable(129) @.str.156, i8 noundef zeroext 2)
  %82 = load ptr, ptr %10, align 8
  %83 = load i32, ptr %16, align 4
  %84 = sext i32 %83 to i64
  %85 = getelementptr inbounds i32, ptr %82, i64 %84
  %86 = load i32, ptr %85, align 4
  %87 = load ptr, ptr %14, align 8
  invoke void (i32, ptr, i32, ptr, ...) @_Z9gmx_fataliRKNSt10filesystem7__cxx114pathEiPKcz(i32 noundef 0, ptr noundef nonnull align 8 dereferenceable(40) %18, i32 noundef 589, ptr noundef @.str.190, i32 noundef %86, ptr noundef %87) #11
          to label %88 unwind label %89

88:                                               ; preds = %81
  unreachable

89:                                               ; preds = %81
  %90 = landingpad { ptr, i32 }
          cleanup
  %91 = extractvalue { ptr, i32 } %90, 0
  store ptr %91, ptr %19, align 8
  %92 = extractvalue { ptr, i32 } %90, 1
  store i32 %92, ptr %20, align 4
  call void @_ZNSt10filesystem7__cxx114pathD2Ev(ptr noundef nonnull align 8 dereferenceable(40) %18) #10
  br label %123

93:                                               ; preds = %69
  %94 = load ptr, ptr %10, align 8
  %95 = load i32, ptr %16, align 4
  %96 = sext i32 %95 to i64
  %97 = getelementptr inbounds i32, ptr %94, i64 %96
  %98 = load i32, ptr %97, align 4
  %99 = load ptr, ptr %8, align 8
  %100 = getelementptr inbounds %struct.edix, ptr %99, i32 0, i32 1
  %101 = load ptr, ptr %100, align 8
  %102 = load i32, ptr %17, align 4
  %103 = sext i32 %102 to i64
  %104 = getelementptr inbounds i32, ptr %101, i64 %103
  store i32 %98, ptr %104, align 4
  %105 = load ptr, ptr %13, align 8
  %106 = load i32, ptr %15, align 4
  %107 = sext i32 %106 to i64
  %108 = getelementptr inbounds [3 x float], ptr %105, i64 %107
  %109 = getelementptr inbounds [3 x float], ptr %108, i64 0, i64 0
  %110 = load ptr, ptr %8, align 8
  %111 = getelementptr inbounds %struct.edix, ptr %110, i32 0, i32 2
  %112 = load ptr, ptr %111, align 8
  %113 = load i32, ptr %17, align 4
  %114 = sext i32 %113 to i64
  %115 = getelementptr inbounds [3 x float], ptr %112, i64 %114
  %116 = getelementptr inbounds [3 x float], ptr %115, i64 0, i64 0
  call void @_ZL9copy_rvecPKfPf(ptr noundef %109, ptr noundef %116)
  br label %117

117:                                              ; preds = %93
  %118 = load i32, ptr %16, align 4
  %119 = add nsw i32 %118, 1
  store i32 %119, ptr %16, align 4
  %120 = load i32, ptr %17, align 4
  %121 = add nsw i32 %120, 1
  store i32 %121, ptr %17, align 4
  br label %41, !llvm.loop !20

122:                                              ; preds = %41
  ret void

123:                                              ; preds = %89
  %124 = load ptr, ptr %19, align 8
  %125 = load i32, ptr %20, align 4
  %126 = insertvalue { ptr, i32 } poison, ptr %124, 0
  %127 = insertvalue { ptr, i32 } %126, i32 %125, 1
  resume { ptr, i32 } %127
}