; Function Attrs: mustprogress uwtable
define internal fastcc void @_ZL10filter2edxP4edixiPiiPKiPA3_KfPKc(ptr nocapture noundef %0, i32 noundef %1, ptr nocapture noundef readonly %2, i32 noundef %3, ptr nocapture noundef readonly %4, ptr nocapture noundef readonly %5, ptr noundef %6) unnamed_addr #0 personality ptr @__gxx_personality_v0 {
  %8 = alloca %"class.std::filesystem::__cxx11::path", align 8
  %9 = load i32, ptr %0, align 8
  %10 = add nsw i32 %9, %1
  store i32 %10, ptr %0, align 8
  %11 = getelementptr inbounds i8, ptr %0, i64 16
  %12 = sext i32 %10 to i64
  %13 = load ptr, ptr %11, align 8
  %14 = tail call noundef ptr @_Z12save_reallocPKcS0_iPvmm(ptr noundef nonnull @.str.188, ptr noundef nonnull @.str.156, i32 noundef 582, ptr noundef %13, i64 noundef %12, i64 noundef 12)
  store ptr %14, ptr %11, align 8
  %15 = getelementptr inbounds i8, ptr %0, i64 8
  %16 = load i32, ptr %0, align 8
  %17 = sext i32 %16 to i64
  %18 = load ptr, ptr %15, align 8
  %19 = tail call noundef ptr @_Z12save_reallocPKcS0_iPvmm(ptr noundef nonnull @.str.189, ptr noundef nonnull @.str.156, i32 noundef 583, ptr noundef %18, i64 noundef %17, i64 noundef 4)
  store ptr %19, ptr %15, align 8
  %20 = icmp sgt i32 %1, 0
  br i1 %20, label %.preheader.lr.ph, label %._crit_edge

.preheader.lr.ph:                                 ; preds = %7
  %21 = icmp sgt i32 %3, 1
  br i1 %21, label %.preheader.us.preheader, label %.preheader.lr.ph.split

.preheader.us.preheader:                          ; preds = %.preheader.lr.ph
  %22 = add nsw i32 %3, -1
  %23 = sext i32 %9 to i64
  %wide.trip.count66 = zext nneg i32 %1 to i64
  %wide.trip.count57 = zext i32 %22 to i64
  br label %.preheader.us

.preheader.us:                                    ; preds = %.preheader.us.preheader, %32
  %indvars.iv61 = phi i64 [ %23, %.preheader.us.preheader ], [ %indvars.iv.next62, %32 ]
  %indvars.iv59 = phi i64 [ 0, %.preheader.us.preheader ], [ %indvars.iv.next60, %32 ]
  %24 = getelementptr inbounds i32, ptr %2, i64 %indvars.iv59
  %25 = load i32, ptr %24, align 4
  br label %26

26:                                               ; preds = %.preheader.us, %29
  %indvars.iv54 = phi i64 [ 0, %.preheader.us ], [ %indvars.iv.next55, %29 ]
  %27 = getelementptr inbounds i32, ptr %4, i64 %indvars.iv54
  %28 = load i32, ptr %27, align 4
  %.not.us = icmp eq i32 %28, %25
  br i1 %.not.us, label %..critedge.us_crit_edge, label %29

..critedge.us_crit_edge:                          ; preds = %26
  %.pre = and i64 %indvars.iv54, 4294967295
  br label %.critedge.us

29:                                               ; preds = %26
  %indvars.iv.next55 = add nuw nsw i64 %indvars.iv54, 1
  %exitcond58.not = icmp eq i64 %indvars.iv.next55, %wide.trip.count57
  br i1 %exitcond58.not, label %.critedge.us, label %26, !llvm.loop !21

.critedge.us:                                     ; preds = %29, %..critedge.us_crit_edge
  %.pre-phi = phi i64 [ %.pre, %..critedge.us_crit_edge ], [ %wide.trip.count57, %29 ]
  %30 = getelementptr inbounds i32, ptr %4, i64 %.pre-phi
  %31 = load i32, ptr %30, align 4
  %.not37.us = icmp eq i32 %31, %25
  br i1 %.not37.us, label %32, label %.split.us

32:                                               ; preds = %.critedge.us
  %33 = load ptr, ptr %15, align 8
  %34 = getelementptr inbounds i32, ptr %33, i64 %indvars.iv61
  store i32 %25, ptr %34, align 4
  %35 = getelementptr inbounds [3 x float], ptr %5, i64 %.pre-phi
  %36 = load ptr, ptr %11, align 8
  %37 = getelementptr inbounds [3 x float], ptr %36, i64 %indvars.iv61
  %38 = load float, ptr %35, align 4
  store float %38, ptr %37, align 4
  %39 = getelementptr inbounds i8, ptr %35, i64 4
  %40 = load float, ptr %39, align 4
  %41 = getelementptr inbounds i8, ptr %37, i64 4
  store float %40, ptr %41, align 4
  %42 = getelementptr inbounds i8, ptr %35, i64 8
  %43 = load float, ptr %42, align 4
  %44 = getelementptr inbounds i8, ptr %37, i64 8
  store float %43, ptr %44, align 4
  %indvars.iv.next60 = add nuw nsw i64 %indvars.iv59, 1
  %indvars.iv.next62 = add nsw i64 %indvars.iv61, 1
  %exitcond67.not = icmp eq i64 %indvars.iv.next60, %wide.trip.count66
  br i1 %exitcond67.not, label %._crit_edge, label %.preheader.us, !llvm.loop !22

.preheader.lr.ph.split:                           ; preds = %.preheader.lr.ph
  %45 = getelementptr inbounds i8, ptr %5, i64 4
  %46 = getelementptr inbounds i8, ptr %5, i64 8
  %47 = sext i32 %9 to i64
  %wide.trip.count = zext nneg i32 %1 to i64
  br label %.preheader

.preheader:                                       ; preds = %.preheader.lr.ph.split, %56
  %indvars.iv49 = phi i64 [ %47, %.preheader.lr.ph.split ], [ %indvars.iv.next50, %56 ]
  %indvars.iv = phi i64 [ 0, %.preheader.lr.ph.split ], [ %indvars.iv.next, %56 ]
  %48 = load i32, ptr %4, align 4
  %49 = getelementptr inbounds i32, ptr %2, i64 %indvars.iv
  %50 = load i32, ptr %49, align 4
  %.not37 = icmp eq i32 %48, %50
  br i1 %.not37, label %56, label %.split.us

.split.us:                                        ; preds = %.preheader, %.critedge.us
  %.us-phi = phi i64 [ %indvars.iv59, %.critedge.us ], [ %indvars.iv, %.preheader ]
  %51 = getelementptr inbounds i32, ptr %2, i64 %.us-phi
  call void @_ZNSt10filesystem7__cxx114pathC2IA129_cS1_EERKT_NS1_6formatE(ptr noundef nonnull align 8 dereferenceable(40) %8, ptr noundef nonnull align 1 dereferenceable(129) @.str.156, i8 noundef zeroext 2)
  %52 = load i32, ptr %51, align 4
  invoke void (i32, ptr, i32, ptr, ...) @_Z9gmx_fataliRKNSt10filesystem7__cxx114pathEiPKcz(i32 noundef 0, ptr noundef nonnull align 8 dereferenceable(40) %8, i32 noundef 589, ptr noundef nonnull @.str.190, i32 noundef %52, ptr noundef %6) #16
          to label %53 unwind label %54

53:                                               ; preds = %.split.us
  unreachable

54:                                               ; preds = %.split.us
  %55 = landingpad { ptr, i32 }
          cleanup
  call void @_ZNSt10filesystem7__cxx114pathD2Ev(ptr noundef nonnull align 8 dereferenceable(40) %8) #15
  resume { ptr, i32 } %55

56:                                               ; preds = %.preheader
  %57 = load ptr, ptr %15, align 8
  %58 = getelementptr inbounds i32, ptr %57, i64 %indvars.iv49
  store i32 %48, ptr %58, align 4
  %59 = load ptr, ptr %11, align 8
  %60 = getelementptr inbounds [3 x float], ptr %59, i64 %indvars.iv49
  %61 = load float, ptr %5, align 4
  store float %61, ptr %60, align 4
  %62 = load float, ptr %45, align 4
  %63 = getelementptr inbounds i8, ptr %60, i64 4
  store float %62, ptr %63, align 4
  %64 = load float, ptr %46, align 4
  %65 = getelementptr inbounds i8, ptr %60, i64 8
  store float %64, ptr %65, align 4
  %indvars.iv.next = add nuw nsw i64 %indvars.iv, 1
  %indvars.iv.next50 = add nsw i64 %indvars.iv49, 1
  %exitcond.not = icmp eq i64 %indvars.iv.next, %wide.trip.count
  br i1 %exitcond.not, label %._crit_edge, label %.preheader, !llvm.loop !22

._crit_edge:                                      ; preds = %56, %32, %7
  ret void
}